target datalayout = "e-m:e-p270:32:32-p271:32:32-p272:64:64-i64:64-i128:128-f80:128-n8:16:32:64-S128"
target triple = "x86_64-pc-linux-gnu"

; Function Attrs: nounwind uwtable
define hidden zeroext i8 @luaO_ceillog2(i32 noundef %0) #0 {
  %2 = alloca i32, align 4
  %3 = alloca i32, align 4
  store i32 %0, ptr %2, align 4, !tbaa !4
  call void @llvm.lifetime.start.p0(i64 4, ptr %3) #10
  store i32 0, ptr %3, align 4, !tbaa !4
  %4 = load i32, ptr %2, align 4, !tbaa !4
  %5 = add i32 %4, -1
  store i32 %5, ptr %2, align 4, !tbaa !4
  br label %6

6:                                                ; preds = %9, %1
  %7 = load i32, ptr %2, align 4, !tbaa !4
  %8 = icmp uge i32 %7, 256
  br i1 %8, label %9, label %14

9:                                                ; preds = %6
  %10 = load i32, ptr %3, align 4, !tbaa !4
  %11 = add nsw i32 %10, 8
  store i32 %11, ptr %3, align 4, !tbaa !4
  %12 = load i32, ptr %2, align 4, !tbaa !4
  %13 = lshr i32 %12, 8
  store i32 %13, ptr %2, align 4, !tbaa !4
  br label %6

14:                                               ; preds = %6
  %15 = load i32, ptr %3, align 4, !tbaa !4
  %16 = load i32, ptr %2, align 4, !tbaa !4
  %17 = zext i32 %16 to i64
  %18 = getelementptr inbounds nuw [256 x i8], ptr @luaO_ceillog2.log_2, i64 0, i64 %17
  %19 = load i8, ptr %18, align 1, !tbaa !8
  %20 = zext i8 %19 to i32
  %21 = add nsw i32 %15, %20
  %22 = trunc i32 %21 to i8
  call void @llvm.lifetime.end.p0(i64 4, ptr %3) #10
  ret i8 %22
}

; Function Attrs: nounwind uwtable
define hidden zeroext i8 @luaO_codeparam(i32 noundef %0) #0 {
  %2 = alloca i8, align 1
  %3 = alloca i32, align 4
  %4 = alloca i32, align 4
  store i32 %0, ptr %3, align 4, !tbaa !4
  %5 = load i32, ptr %3, align 4, !tbaa !4
  %6 = zext i32 %5 to i64
  %7 = icmp uge i64 %6, 396800
  br i1 %7, label %8, label %9

8:                                                ; preds = %1
  store i8 -1, ptr %2, align 1
  br label %34

9:                                                ; preds = %1
  %10 = load i32, ptr %3, align 4, !tbaa !4
  %11 = mul i32 %10, 128
  %12 = add i32 %11, 99
  %13 = udiv i32 %12, 100
  store i32 %13, ptr %3, align 4, !tbaa !4
  %14 = load i32, ptr %3, align 4, !tbaa !4
  %15 = icmp ult i32 %14, 16
  br i1 %15, label %16, label %19

16:                                               ; preds = %9
  %17 = load i32, ptr %3, align 4, !tbaa !4
  %18 = trunc i32 %17 to i8
  store i8 %18, ptr %2, align 1
  br label %34

19:                                               ; preds = %9
  call void @llvm.lifetime.start.p0(i64 4, ptr %4) #10
  %20 = load i32, ptr %3, align 4, !tbaa !4
  %21 = add i32 %20, 1
  %22 = call zeroext i8 @luaO_ceillog2(i32 noundef %21)
  %23 = zext i8 %22 to i32
  %24 = sub i32 %23, 5
  store i32 %24, ptr %4, align 4, !tbaa !4
  %25 = load i32, ptr %3, align 4, !tbaa !4
  %26 = load i32, ptr %4, align 4, !tbaa !4
  %27 = lshr i32 %25, %26
  %28 = sub i32 %27, 16
  %29 = load i32, ptr %4, align 4, !tbaa !4
  %30 = add i32 %29, 1
  %31 = shl i32 %30, 4
  %32 = or i32 %28, %31
  %33 = trunc i32 %32 to i8
  store i8 %33, ptr %2, align 1
  call void @llvm.lifetime.end.p0(i64 4, ptr %4) #10
  br label %34

34:                                               ; preds = %19, %16, %8
  %35 = load i8, ptr %2, align 1
  ret i8 %35
}