; Function Attrs: nofree norecurse nosync nounwind memory(none) uwtable
define hidden zeroext i8 @luaO_codeparam(i32 noundef %0) local_unnamed_addr #0 {
  %2 = icmp ugt i32 %0, 396799
  br i1 %2, label %27, label %3

3:                                                ; preds = %1
  %4 = shl nuw nsw i32 %0, 7
  %5 = or disjoint i32 %4, 96
  %6 = udiv i32 %5, 100
  %7 = icmp samesign ult i32 %5, 1600
  br i1 %7, label %8, label %10

8:                                                ; preds = %3
  %9 = trunc nuw nsw i32 %6 to i8
  br label %27

10:                                               ; preds = %3
  %11 = icmp samesign ugt i32 %0, 199
  br i1 %11, label %.lr.ph.i, label %luaO_ceillog2.exit

.lr.ph.i:                                         ; preds = %10, %.lr.ph.i
  %.08.i = phi i8 [ %12, %.lr.ph.i ], [ 0, %10 ]
  %.067.i = phi i32 [ %13, %.lr.ph.i ], [ %6, %10 ]
  %12 = add i8 %.08.i, 8
  %13 = lshr i32 %.067.i, 8
  %14 = icmp samesign ugt i32 %.067.i, 65535
  br i1 %14, label %.lr.ph.i, label %luaO_ceillog2.exit

luaO_ceillog2.exit:                               ; preds = %.lr.ph.i, %10
  %.06.lcssa.i = phi i32 [ %6, %10 ], [ %13, %.lr.ph.i ]
  %.0.lcssa.i = phi i8 [ 0, %10 ], [ %12, %.lr.ph.i ]
  %15 = zext nneg i32 %.06.lcssa.i to i64
  %16 = getelementptr inbounds nuw [256 x i8], ptr @luaO_ceillog2.log_2, i64 0, i64 %15
  %17 = load i8, ptr %16, align 1, !tbaa !4
  %18 = add i8 %17, %.0.lcssa.i
  %19 = zext i8 %18 to i32
  %20 = add nsw i32 %19, -5
  %21 = lshr i32 %6, %20
  %22 = add nuw nsw i32 %21, 240
  %23 = shl nuw nsw i32 %19, 4
  %24 = add nuw nsw i32 %23, 192
  %25 = or i32 %22, %24
  %26 = trunc i32 %25 to i8
  br label %27

27:                                               ; preds = %1, %luaO_ceillog2.exit, %8
  %.0 = phi i8 [ %9, %8 ], [ %26, %luaO_ceillog2.exit ], [ -1, %1 ]
  ret i8 %.0
}